target datalayout = "e-m:e-p270:32:32-p271:32:32-p272:64:64-i64:64-i128:128-f80:128-n8:16:32:64-S128"
target triple = "x86_64-pc-linux-gnu"

%struct.archive_read = type { %struct.archive, ptr, i32, i64, i64, %struct.archive_read_client, [16 x %struct.archive_read_filter_bidder], ptr, i32, i64, i32, i32, [16 x %struct.archive_format_descriptor], ptr, ptr, ptr, %struct.anon }
%struct.archive = type { i32, i32, ptr, i32, ptr, i32, i32, ptr, %struct.archive_string, ptr, i32, i32, ptr, ptr, i64, i64, i64, i8, i64 }
%struct.archive_string = type { ptr, i64, i64 }
%struct.archive_read_client = type { ptr, ptr, ptr, ptr, ptr, ptr, i32, i32, i64, ptr }
%struct.archive_read_filter_bidder = type { ptr, ptr, ptr }
%struct.archive_format_descriptor = type { ptr, ptr, ptr, ptr, ptr, ptr, ptr, ptr, ptr, ptr, ptr }
%struct.anon = type { ptr, ptr, i32, ptr, ptr }
%struct.ar = type { i64, i64, i64, i64, ptr, i64, i8 }

@.str.22 = private unnamed_addr constant [21 x i8] c"Truncated ar archive\00", align 1
@.str.23 = private unnamed_addr constant [48 x i8] c"Truncated ar archive - failed consuming padding\00", align 1

; Function Attrs: nounwind uwtable
define internal i32 @archive_read_format_ar_read_data(ptr noundef %0, ptr noundef %1, ptr noundef %2, ptr noundef %3) #0 {
  %5 = alloca i32, align 4
  %6 = alloca ptr, align 8
  %7 = alloca ptr, align 8
  %8 = alloca ptr, align 8
  %9 = alloca ptr, align 8
  %10 = alloca i64, align 8
  %11 = alloca ptr, align 8
  %12 = alloca i32, align 4
  %13 = alloca i64, align 8
  store ptr %0, ptr %6, align 8, !tbaa !9
  store ptr %1, ptr %7, align 8, !tbaa !19
  store ptr %2, ptr %8, align 8, !tbaa !41
  store ptr %3, ptr %9, align 8, !tbaa !41
  call void @llvm.lifetime.start.p0(i64 8, ptr %10) #8
  call void @llvm.lifetime.start.p0(i64 8, ptr %11) #8
  %14 = load ptr, ptr %6, align 8, !tbaa !9
  %15 = getelementptr inbounds nuw %struct.archive_read, ptr %14, i32 0, i32 13
  %16 = load ptr, ptr %15, align 8, !tbaa !22
  %17 = getelementptr inbounds nuw %struct.archive_format_descriptor, ptr %16, i32 0, i32 0
  %18 = load ptr, ptr %17, align 8, !tbaa !36
  store ptr %18, ptr %11, align 8, !tbaa !13
  %19 = load ptr, ptr %11, align 8, !tbaa !13
  %20 = getelementptr inbounds nuw %struct.ar, ptr %19, i32 0, i32 1
  %21 = load i64, ptr %20, align 8, !tbaa !43
  %22 = icmp ne i64 %21, 0
  br i1 %22, label %23, label %31

23:                                               ; preds = %4
  %24 = load ptr, ptr %6, align 8, !tbaa !9
  %25 = load ptr, ptr %11, align 8, !tbaa !13
  %26 = getelementptr inbounds nuw %struct.ar, ptr %25, i32 0, i32 1
  %27 = load i64, ptr %26, align 8, !tbaa !43
  %28 = call i64 @__archive_read_consume(ptr noundef %24, i64 noundef %27)
  %29 = load ptr, ptr %11, align 8, !tbaa !13
  %30 = getelementptr inbounds nuw %struct.ar, ptr %29, i32 0, i32 1
  store i64 0, ptr %30, align 8, !tbaa !43
  br label %31

31:                                               ; preds = %23, %4
  %32 = load ptr, ptr %11, align 8, !tbaa !13
  %33 = getelementptr inbounds nuw %struct.ar, ptr %32, i32 0, i32 0
  %34 = load i64, ptr %33, align 8, !tbaa !44
  %35 = icmp sgt i64 %34, 0
  br i1 %35, label %36, label %79

36:                                               ; preds = %31
  %37 = load ptr, ptr %6, align 8, !tbaa !9
  %38 = call ptr @__archive_read_ahead(ptr noundef %37, i64 noundef 1, ptr noundef %10)
  %39 = load ptr, ptr %7, align 8, !tbaa !19
  store ptr %38, ptr %39, align 8, !tbaa !19
  %40 = load i64, ptr %10, align 8, !tbaa !40
  %41 = icmp eq i64 %40, 0
  br i1 %41, label %42, label %45

42:                                               ; preds = %36
  %43 = load ptr, ptr %6, align 8, !tbaa !9
  %44 = getelementptr inbounds nuw %struct.archive_read, ptr %43, i32 0, i32 0
  call void (ptr, i32, ptr, ...) @archive_set_error(ptr noundef %44, i32 noundef -1, ptr noundef @.str.22)
  store i32 -30, ptr %5, align 4
  store i32 1, ptr %12, align 4
  br label %113

45:                                               ; preds = %36
  %46 = load i64, ptr %10, align 8, !tbaa !40
  %47 = icmp slt i64 %46, 0
  br i1 %47, label %48, label %49

48:                                               ; preds = %45
  store i32 -30, ptr %5, align 4
  store i32 1, ptr %12, align 4
  br label %113

49:                                               ; preds = %45
  %50 = load i64, ptr %10, align 8, !tbaa !40
  %51 = load ptr, ptr %11, align 8, !tbaa !13
  %52 = getelementptr inbounds nuw %struct.ar, ptr %51, i32 0, i32 0
  %53 = load i64, ptr %52, align 8, !tbaa !44
  %54 = icmp sgt i64 %50, %53
  br i1 %54, label %55, label %59

55:                                               ; preds = %49
  %56 = load ptr, ptr %11, align 8, !tbaa !13
  %57 = getelementptr inbounds nuw %struct.ar, ptr %56, i32 0, i32 0
  %58 = load i64, ptr %57, align 8, !tbaa !44
  store i64 %58, ptr %10, align 8, !tbaa !40
  br label %59

59:                                               ; preds = %55, %49
  %60 = load i64, ptr %10, align 8, !tbaa !40
  %61 = load ptr, ptr %8, align 8, !tbaa !41
  store i64 %60, ptr %61, align 8, !tbaa !40
  %62 = load i64, ptr %10, align 8, !tbaa !40
  %63 = load ptr, ptr %11, align 8, !tbaa !13
  %64 = getelementptr inbounds nuw %struct.ar, ptr %63, i32 0, i32 1
  store i64 %62, ptr %64, align 8, !tbaa !43
  %65 = load ptr, ptr %11, align 8, !tbaa !13
  %66 = getelementptr inbounds nuw %struct.ar, ptr %65, i32 0, i32 2
  %67 = load i64, ptr %66, align 8, !tbaa !45
  %68 = load ptr, ptr %9, align 8, !tbaa !41
  store i64 %67, ptr %68, align 8, !tbaa !40
  %69 = load i64, ptr %10, align 8, !tbaa !40
  %70 = load ptr, ptr %11, align 8, !tbaa !13
  %71 = getelementptr inbounds nuw %struct.ar, ptr %70, i32 0, i32 2
  %72 = load i64, ptr %71, align 8, !tbaa !45
  %73 = add nsw i64 %72, %69
  store i64 %73, ptr %71, align 8, !tbaa !45
  %74 = load i64, ptr %10, align 8, !tbaa !40
  %75 = load ptr, ptr %11, align 8, !tbaa !13
  %76 = getelementptr inbounds nuw %struct.ar, ptr %75, i32 0, i32 0
  %77 = load i64, ptr %76, align 8, !tbaa !44
  %78 = sub nsw i64 %77, %74
  store i64 %78, ptr %76, align 8, !tbaa !44
  store i32 0, ptr %5, align 4
  store i32 1, ptr %12, align 4
  br label %113

79:                                               ; preds = %31
  call void @llvm.lifetime.start.p0(i64 8, ptr %13) #8
  %80 = load ptr, ptr %6, align 8, !tbaa !9
  %81 = load ptr, ptr %11, align 8, !tbaa !13
  %82 = getelementptr inbounds nuw %struct.ar, ptr %81, i32 0, i32 3
  %83 = load i64, ptr %82, align 8, !tbaa !46
  %84 = call i64 @__archive_read_consume(ptr noundef %80, i64 noundef %83)
  store i64 %84, ptr %13, align 8, !tbaa !40
  %85 = load i64, ptr %13, align 8, !tbaa !40
  %86 = icmp sge i64 %85, 0
  br i1 %86, label %87, label %93

87:                                               ; preds = %79
  %88 = load i64, ptr %13, align 8, !tbaa !40
  %89 = load ptr, ptr %11, align 8, !tbaa !13
  %90 = getelementptr inbounds nuw %struct.ar, ptr %89, i32 0, i32 3
  %91 = load i64, ptr %90, align 8, !tbaa !46
  %92 = sub nsw i64 %91, %88
  store i64 %92, ptr %90, align 8, !tbaa !46
  br label %93

93:                                               ; preds = %87, %79
  %94 = load ptr, ptr %11, align 8, !tbaa !13
  %95 = getelementptr inbounds nuw %struct.ar, ptr %94, i32 0, i32 3
  %96 = load i64, ptr %95, align 8, !tbaa !46
  %97 = icmp ne i64 %96, 0
  br i1 %97, label %98, label %105

98:                                               ; preds = %93
  %99 = load i64, ptr %13, align 8, !tbaa !40
  %100 = icmp sge i64 %99, 0
  br i1 %100, label %101, label %104

101:                                              ; preds = %98
  %102 = load ptr, ptr %6, align 8, !tbaa !9
  %103 = getelementptr inbounds nuw %struct.archive_read, ptr %102, i32 0, i32 0
  call void (ptr, i32, ptr, ...) @archive_set_error(ptr noundef %103, i32 noundef -1, ptr noundef @.str.23)
  br label %104

104:                                              ; preds = %101, %98
  store i32 -30, ptr %5, align 4
  store i32 1, ptr %12, align 4
  br label %112

105:                                              ; preds = %93
  %106 = load ptr, ptr %7, align 8, !tbaa !19
  store ptr null, ptr %106, align 8, !tbaa !19
  %107 = load ptr, ptr %8, align 8, !tbaa !41
  store i64 0, ptr %107, align 8, !tbaa !40
  %108 = load ptr, ptr %11, align 8, !tbaa !13
  %109 = getelementptr inbounds nuw %struct.ar, ptr %108, i32 0, i32 2
  %110 = load i64, ptr %109, align 8, !tbaa !45
  %111 = load ptr, ptr %9, align 8, !tbaa !41
  store i64 %110, ptr %111, align 8, !tbaa !40
  store i32 1, ptr %5, align 4
  store i32 1, ptr %12, align 4
  br label %112

112:                                              ; preds = %105, %104
  call void @llvm.lifetime.end.p0(i64 8, ptr %13) #8
  br label %113

113:                                              ; preds = %112, %59, %48, %42
  call void @llvm.lifetime.end.p0(i64 8, ptr %11) #8
  call void @llvm.lifetime.end.p0(i64 8, ptr %10) #8
  %114 = load i32, ptr %5, align 4
  ret i32 %114
}