; Function Attrs: nounwind uwtable
define internal range(i32 -30, 2) i32 @archive_read_format_ar_read_data(ptr noundef %0, ptr noundef writeonly captures(none) %1, ptr noundef writeonly captures(none) %2, ptr noundef writeonly captures(none) %3) #0 {
  %5 = alloca i64, align 8
  call void @llvm.lifetime.start.p0(i64 8, ptr nonnull %5) #13
  %6 = getelementptr inbounds nuw i8, ptr %0, i64 2072
  %7 = load ptr, ptr %6, align 8, !tbaa !4
  %8 = load ptr, ptr %7, align 8, !tbaa !25
  %9 = getelementptr inbounds nuw i8, ptr %8, i64 8
  %10 = load i64, ptr %9, align 8, !tbaa !39
  %.not = icmp eq i64 %10, 0
  br i1 %.not, label %13, label %11

11:                                               ; preds = %4
  %12 = tail call i64 @__archive_read_consume(ptr noundef nonnull %0, i64 noundef %10) #13
  store i64 0, ptr %9, align 8, !tbaa !39
  br label %13

13:                                               ; preds = %11, %4
  %14 = load i64, ptr %8, align 8, !tbaa !38
  %15 = icmp sgt i64 %14, 0
  br i1 %15, label %16, label %30

16:                                               ; preds = %13
  %17 = call ptr @__archive_read_ahead(ptr noundef nonnull %0, i64 noundef 1, ptr noundef nonnull %5) #13
  store ptr %17, ptr %1, align 8, !tbaa !40
  %18 = load i64, ptr %5, align 8, !tbaa !41
  %19 = icmp eq i64 %18, 0
  br i1 %19, label %20, label %21

20:                                               ; preds = %16
  call void (ptr, i32, ptr, ...) @archive_set_error(ptr noundef nonnull %0, i32 noundef -1, ptr noundef nonnull @.str.22) #13
  br label %.thread35

21:                                               ; preds = %16
  %22 = icmp slt i64 %18, 0
  br i1 %22, label %.thread35, label %23

23:                                               ; preds = %21
  %24 = load i64, ptr %8, align 8, !tbaa !38
  %spec.select = call i64 @llvm.smin.i64(i64 %18, i64 %24)
  store i64 %spec.select, ptr %2, align 8, !tbaa !41
  store i64 %spec.select, ptr %9, align 8, !tbaa !39
  %25 = getelementptr inbounds nuw i8, ptr %8, i64 16
  %26 = load i64, ptr %25, align 8, !tbaa !42
  store i64 %26, ptr %3, align 8, !tbaa !41
  %27 = add nsw i64 %26, %spec.select
  store i64 %27, ptr %25, align 8, !tbaa !42
  %28 = load i64, ptr %8, align 8, !tbaa !38
  %29 = sub nsw i64 %28, %spec.select
  store i64 %29, ptr %8, align 8, !tbaa !38
  br label %.thread35

30:                                               ; preds = %13
  %31 = getelementptr inbounds nuw i8, ptr %8, i64 24
  %32 = load i64, ptr %31, align 8, !tbaa !43
  %33 = tail call i64 @__archive_read_consume(ptr noundef nonnull %0, i64 noundef %32) #13
  %34 = icmp sgt i64 %33, -1
  %35 = load i64, ptr %31, align 8, !tbaa !43
  br i1 %34, label %36, label %.thread

36:                                               ; preds = %30
  %37 = sub nsw i64 %35, %33
  store i64 %37, ptr %31, align 8, !tbaa !43
  %.not33 = icmp eq i64 %35, %33
  br i1 %.not33, label %39, label %38

.thread:                                          ; preds = %30
  %.not3334 = icmp eq i64 %35, 0
  br i1 %.not3334, label %39, label %.thread35

38:                                               ; preds = %36
  tail call void (ptr, i32, ptr, ...) @archive_set_error(ptr noundef nonnull %0, i32 noundef -1, ptr noundef nonnull @.str.23) #13
  br label %.thread35

39:                                               ; preds = %.thread, %36
  store ptr null, ptr %1, align 8, !tbaa !40
  store i64 0, ptr %2, align 8, !tbaa !41
  %40 = getelementptr inbounds nuw i8, ptr %8, i64 16
  %41 = load i64, ptr %40, align 8, !tbaa !42
  store i64 %41, ptr %3, align 8, !tbaa !41
  br label %.thread35

.thread35:                                        ; preds = %.thread, %39, %38, %21, %23, %20
  %.0 = phi i32 [ -30, %20 ], [ 0, %23 ], [ -30, %21 ], [ 1, %39 ], [ -30, %38 ], [ -30, %.thread ]
  call void @llvm.lifetime.end.p0(i64 8, ptr nonnull %5) #13
  ret i32 %.0
}